; ModuleID = 'bench/memcached/original/murmur3_hash.ll'
source_filename = "bench/memcached/original/murmur3_hash.ll"
target datalayout = "e-m:e-p270:32:32-p271:32:32-p272:64:64-i64:64-i128:128-f80:128-n8:16:32:64-S128"
target triple = "x86_64-pc-linux-gnu"

; Function Attrs: nofree norecurse nosync nounwind memory(argmem: read) uwtable
define dso_local i32 @MurmurHash3_x86_32(ptr noundef readonly captures(none) %0, i64 noundef %1) local_unnamed_addr #0 {
  %3 = lshr i64 %1, 2
  %4 = trunc i64 %3 to i32
  %5 = shl nsw i32 %4, 2
  %6 = sext i32 %5 to i64
  %7 = getelementptr inbounds i8, ptr %0, i64 %6
  %.not40 = icmp eq i32 %4, 0
  br i1 %.not40, label %._crit_edge, label %.lr.ph.preheader

.lr.ph.preheader:                                 ; preds = %2
  %.neg = mul i64 %3, -4294967296
  %8 = ashr exact i64 %.neg, 32
  br label %.lr.ph

._crit_edge:                                      ; preds = %.lr.ph, %2
  %.037.lcssa = phi i32 [ 0, %2 ], [ %18, %.lr.ph ]
  %9 = and i64 %1, 3
  switch i64 %9, label %default.unreachable44 [
    i64 3, label %19
    i64 2, label %24
    i64 1, label %30
    i64 0, label %38
  ]

.lr.ph:                                           ; preds = %.lr.ph.preheader, %.lr.ph
  %indvars.iv = phi i64 [ %8, %.lr.ph.preheader ], [ %indvars.iv.next, %.lr.ph ]
  %.03742 = phi i32 [ 0, %.lr.ph.preheader ], [ %18, %.lr.ph ]
  %10 = getelementptr inbounds i32, ptr %7, i64 %indvars.iv
  %11 = load i32, ptr %10, align 4, !tbaa !4
  %12 = mul i32 %11, -862048943
  %13 = tail call i32 @llvm.fshl.i32(i32 %12, i32 %12, i32 15)
  %14 = mul i32 %13, 461845907
  %15 = xor i32 %14, %.03742
  %16 = tail call i32 @llvm.fshl.i32(i32 %15, i32 %15, i32 13)
  %17 = mul i32 %16, 5
  %18 = add i32 %17, -430675100
  %indvars.iv.next = add nsw i64 %indvars.iv, 1
  %.not = icmp eq i64 %indvars.iv.next, 0
  br i1 %.not, label %._crit_edge, label %.lr.ph, !llvm.loop !8

19:                                               ; preds = %._crit_edge
  %20 = getelementptr inbounds nuw i8, ptr %7, i64 2
  %21 = load i8, ptr %20, align 1, !tbaa !10
  %22 = zext i8 %21 to i32
  %23 = shl nuw nsw i32 %22, 16
  br label %24

24:                                               ; preds = %._crit_edge, %19
  %.0 = phi i32 [ 0, %._crit_edge ], [ %23, %19 ]
  %25 = getelementptr inbounds nuw i8, ptr %7, i64 1
  %26 = load i8, ptr %25, align 1, !tbaa !10
  %27 = zext i8 %26 to i32
  %28 = shl nuw nsw i32 %27, 8
  %29 = or disjoint i32 %28, %.0
  br label %30

30:                                               ; preds = %._crit_edge, %24
  %.1 = phi i32 [ 0, %._crit_edge ], [ %29, %24 ]
  %31 = load i8, ptr %7, align 1, !tbaa !10
  %32 = zext i8 %31 to i32
  %33 = xor i32 %.1, %32
  %34 = mul i32 %33, -862048943
  %35 = tail call i32 @llvm.fshl.i32(i32 %34, i32 %34, i32 15)
  %36 = mul i32 %35, 461845907
  %37 = xor i32 %36, %.037.lcssa
  br label %38

default.unreachable44:                            ; preds = %._crit_edge
  unreachable

38:                                               ; preds = %._crit_edge, %30
  %.138 = phi i32 [ %.037.lcssa, %._crit_edge ], [ %37, %30 ]
  %39 = trunc i64 %1 to i32
  %40 = xor i32 %.138, %39
  %41 = lshr i32 %40, 16
  %42 = xor i32 %41, %40
  %43 = mul i32 %42, -2048144789
  %44 = lshr i32 %43, 13
  %45 = xor i32 %44, %43
  %46 = mul i32 %45, -1028477387
  %47 = lshr i32 %46, 16
  %48 = xor i32 %47, %46
  ret i32 %48
}

; Function Attrs: nocallback nofree nosync nounwind speculatable willreturn memory(none)
declare i32 @llvm.fshl.i32(i32, i32, i32) #1


!llvm.module.flags = !{!0, !1, !2, !3}

!0 = !{i32 1, !"wchar_size", i32 4}
!1 = !{i32 8, !"PIC Level", i32 2}
!2 = !{i32 7, !"PIE Level", i32 2}
!3 = !{i32 7, !"uwtable", i32 2}
!4 = !{!5, !5, i64 0}
!5 = !{!"int", !6, i64 0}
!6 = !{!"omnipotent char", !7, i64 0}
!7 = !{!"Simple C/C++ TBAA"}
!8 = distinct !{!8, !9}
!9 = !{!"llvm.loop.mustprogress"}
!10 = !{!6, !6, i64 0}
